; Function Attrs: nounwind uwtable
define internal fastcc void @BlockRefTableFileTerminate(ptr noundef %0) unnamed_addr #0 {
  %2 = alloca %struct.BlockRefTableSerializedEntry, align 4
  %3 = alloca i32, align 4
  call void @llvm.lifetime.start.p0(i64 24, ptr nonnull %2) #14
  call void @llvm.memset.p0.i64(ptr noundef nonnull align 4 dereferenceable(24) %2, i8 0, i64 24, i1 false)
  call void @llvm.lifetime.start.p0(i64 4, ptr nonnull %3) #14
  %4 = load ptr, ptr @pg_comp_crc32c, align 8
  %5 = getelementptr inbounds nuw i8, ptr %0, i64 65560
  %6 = load i32, ptr %5, align 8
  %7 = call i32 %4(i32 noundef %6, ptr noundef nonnull %2, i64 noundef 24) #14
  store i32 %7, ptr %5, align 8
  %8 = getelementptr inbounds nuw i8, ptr %0, i64 65552
  %9 = load i32, ptr %8, align 8
  %10 = add i32 %9, 24
  %11 = icmp sgt i32 %10, 65536
  br i1 %11, label %12, label %BlockRefTableWrite.exit

12:                                               ; preds = %1
  %13 = load ptr, ptr %0, align 8
  %14 = getelementptr inbounds nuw i8, ptr %0, i64 8
  %15 = load ptr, ptr %14, align 8
  %16 = getelementptr inbounds nuw i8, ptr %0, i64 16
  %17 = call i32 %13(ptr noundef %15, ptr noundef nonnull %16, i32 noundef %9) #14
  store i32 0, ptr %8, align 8
  br label %BlockRefTableWrite.exit

BlockRefTableWrite.exit:                          ; preds = %1, %12
  %18 = phi i32 [ 0, %12 ], [ %9, %1 ]
  %19 = getelementptr inbounds nuw i8, ptr %0, i64 16
  %20 = sext i32 %18 to i64
  %21 = getelementptr inbounds [65536 x i8], ptr %19, i64 0, i64 %20
  call void @llvm.memcpy.p0.p0.i64(ptr noundef nonnull align 1 dereferenceable(24) %21, ptr noundef nonnull align 4 dereferenceable(24) %2, i64 24, i1 false)
  %22 = load i32, ptr %8, align 8
  %23 = add i32 %22, 24
  store i32 %23, ptr %8, align 8
  %24 = load i32, ptr %5, align 8
  %25 = xor i32 %24, -1
  store i32 %25, ptr %3, align 4
  %26 = load ptr, ptr @pg_comp_crc32c, align 8
  %27 = call i32 %26(i32 noundef %24, ptr noundef nonnull %3, i64 noundef 4) #14
  store i32 %27, ptr %5, align 8
  %28 = load i32, ptr %8, align 8
  %29 = add i32 %28, 4
  %30 = icmp sgt i32 %29, 65536
  br i1 %30, label %31, label %BlockRefTableWrite.exit4

31:                                               ; preds = %BlockRefTableWrite.exit
  %32 = load ptr, ptr %0, align 8
  %33 = getelementptr inbounds nuw i8, ptr %0, i64 8
  %34 = load ptr, ptr %33, align 8
  %35 = call i32 %32(ptr noundef %34, ptr noundef nonnull %19, i32 noundef %28) #14
  store i32 0, ptr %8, align 8
  br label %BlockRefTableWrite.exit4

BlockRefTableWrite.exit4:                         ; preds = %BlockRefTableWrite.exit, %31
  %36 = phi i32 [ 0, %31 ], [ %28, %BlockRefTableWrite.exit ]
  %37 = sext i32 %36 to i64
  %38 = getelementptr inbounds [65536 x i8], ptr %19, i64 0, i64 %37
  %39 = load i32, ptr %3, align 4
  store i32 %39, ptr %38, align 1
  %40 = load i32, ptr %8, align 8
  %41 = add i32 %40, 4
  store i32 %41, ptr %8, align 8
  %42 = load ptr, ptr %0, align 8
  %43 = getelementptr inbounds nuw i8, ptr %0, i64 8
  %44 = load ptr, ptr %43, align 8
  %45 = call i32 %42(ptr noundef %44, ptr noundef nonnull %19, i32 noundef %41) #14
  store i32 0, ptr %8, align 8
  call void @llvm.lifetime.end.p0(i64 4, ptr nonnull %3) #14
  call void @llvm.lifetime.end.p0(i64 24, ptr nonnull %2) #14
  ret void
}